; Function Attrs: mustprogress nounwind willreturn uwtable
define void @Cof_ManStop(ptr noundef captures(none) %0) local_unnamed_addr #5 {
  %2 = getelementptr inbounds nuw i8, ptr %0, i64 8
  %3 = load ptr, ptr %2, align 8, !tbaa !33
  %4 = getelementptr inbounds nuw i8, ptr %3, i64 8
  %5 = load ptr, ptr %4, align 8, !tbaa !32
  %.not.i = icmp eq ptr %5, null
  br i1 %.not.i, label %Vec_IntFree.exit, label %6

6:                                                ; preds = %1
  tail call void @free(ptr noundef nonnull %5) #27
  br label %Vec_IntFree.exit

Vec_IntFree.exit:                                 ; preds = %1, %6
  tail call void @free(ptr noundef nonnull %3) #27
  %7 = getelementptr inbounds nuw i8, ptr %0, i64 16
  %8 = load ptr, ptr %7, align 8, !tbaa !35
  %9 = getelementptr inbounds nuw i8, ptr %8, i64 8
  %10 = load ptr, ptr %9, align 8, !tbaa !32
  %.not.i14 = icmp eq ptr %10, null
  br i1 %.not.i14, label %Vec_IntFree.exit15, label %11

11:                                               ; preds = %Vec_IntFree.exit
  tail call void @free(ptr noundef nonnull %10) #27
  br label %Vec_IntFree.exit15

Vec_IntFree.exit15:                               ; preds = %Vec_IntFree.exit, %11
  tail call void @free(ptr noundef nonnull %8) #27
  %12 = getelementptr inbounds nuw i8, ptr %0, i64 40
  %13 = load ptr, ptr %12, align 8, !tbaa !38
  %.not = icmp eq ptr %13, null
  br i1 %.not, label %15, label %14

14:                                               ; preds = %Vec_IntFree.exit15
  tail call void @free(ptr noundef nonnull %13) #27
  store ptr null, ptr %12, align 8, !tbaa !38
  br label %15

15:                                               ; preds = %Vec_IntFree.exit15, %14
  %16 = getelementptr inbounds nuw i8, ptr %0, i64 56
  %17 = load ptr, ptr %16, align 8, !tbaa !53
  %.not12 = icmp eq ptr %17, null
  br i1 %.not12, label %19, label %18

18:                                               ; preds = %15
  tail call void @free(ptr noundef nonnull %17) #27
  br label %19

19:                                               ; preds = %15, %18
  tail call void @free(ptr noundef nonnull %0) #27
  ret void
}